target datalayout = "e-m:e-p270:32:32-p271:32:32-p272:64:64-i64:64-i128:128-f80:128-n8:16:32:64-S128"
target triple = "x86_64-pc-linux-gnu"

; Function Attrs: nounwind uwtable
define dso_local i32 @tarChecksum(ptr noundef %0) #0 {
  %2 = alloca ptr, align 8
  %3 = alloca i32, align 4
  %4 = alloca i32, align 4
  store ptr %0, ptr %2, align 8
  call void @llvm.lifetime.start.p0(i64 4, ptr %3) #7
  call void @llvm.lifetime.start.p0(i64 4, ptr %4) #7
  store i32 256, ptr %4, align 4
  store i32 0, ptr %3, align 4
  br label %5

5:                                                ; preds = %25, %1
  %6 = load i32, ptr %3, align 4
  %7 = icmp slt i32 %6, 512
  br i1 %7, label %8, label %28

8:                                                ; preds = %5
  %9 = load i32, ptr %3, align 4
  %10 = icmp slt i32 %9, 148
  br i1 %10, label %14, label %11

11:                                               ; preds = %8
  %12 = load i32, ptr %3, align 4
  %13 = icmp sge i32 %12, 156
  br i1 %13, label %14, label %24

14:                                               ; preds = %11, %8
  %15 = load ptr, ptr %2, align 8
  %16 = load i32, ptr %3, align 4
  %17 = sext i32 %16 to i64
  %18 = getelementptr inbounds i8, ptr %15, i64 %17
  %19 = load i8, ptr %18, align 1
  %20 = sext i8 %19 to i32
  %21 = and i32 255, %20
  %22 = load i32, ptr %4, align 4
  %23 = add i32 %22, %21
  store i32 %23, ptr %4, align 4
  br label %24

24:                                               ; preds = %14, %11
  br label %25

25:                                               ; preds = %24
  %26 = load i32, ptr %3, align 4
  %27 = add i32 %26, 1
  store i32 %27, ptr %3, align 4
  br label %5, !llvm.loop !9

28:                                               ; preds = %5
  %29 = load i32, ptr %4, align 4
  call void @llvm.lifetime.end.p0(i64 4, ptr %4) #7
  call void @llvm.lifetime.end.p0(i64 4, ptr %3) #7
  ret i32 %29
}