; Function Attrs: nofree norecurse nosync nounwind memory(argmem: read) uwtable
define dso_local i32 @tarChecksum(ptr noundef readonly captures(none) %0) local_unnamed_addr #1 {
  br label %2

2:                                                ; preds = %1, %10
  %indvars.iv = phi i64 [ 0, %1 ], [ %indvars.iv.next, %10 ]
  %.010 = phi i32 [ 256, %1 ], [ %.1, %10 ]
  %3 = trunc i64 %indvars.iv to i32
  %4 = add i32 %3, -156
  %or.cond = icmp ult i32 %4, -8
  br i1 %or.cond, label %5, label %10

5:                                                ; preds = %2
  %6 = getelementptr inbounds nuw i8, ptr %0, i64 %indvars.iv
  %7 = load i8, ptr %6, align 1
  %8 = zext i8 %7 to i32
  %9 = add i32 %.010, %8
  br label %10

10:                                               ; preds = %5, %2
  %.1 = phi i32 [ %9, %5 ], [ %.010, %2 ]
  %indvars.iv.next = add nuw nsw i64 %indvars.iv, 1
  %exitcond.not = icmp eq i64 %indvars.iv.next, 512
  br i1 %exitcond.not, label %11, label %2, !llvm.loop !9

11:                                               ; preds = %10
  ret i32 %.1
}